; Function Attrs: mustprogress nofree norecurse nounwind willreturn memory(readwrite, inaccessiblemem: none) uwtable
define hidden noundef zeroext i1 @_ZN2dd6solver8canceledEv(ptr nocapture noundef nonnull readonly align 8 dereferenceable(208) %this) local_unnamed_addr #8 align 2 personality ptr @__gxx_personality_v0 {
entry:
  %m_limit = getelementptr inbounds i8, ptr %this, i64 8
  %0 = load ptr, ptr %m_limit, align 8
  %1 = load atomic i32, ptr %0 seq_cst, align 4
  %cmp.i.i = icmp eq i32 %1, 0
  br i1 %cmp.i.i, label %land.lhs.true.i.i, label %lor.rhs.i.i

land.lhs.true.i.i:                                ; preds = %entry
  %m_count.i.i = getelementptr inbounds i8, ptr %0, i64 8
  %2 = load i64, ptr %m_count.i.i, align 8
  %m_limit.i.i = getelementptr inbounds i8, ptr %0, i64 16
  %3 = load i64, ptr %m_limit.i.i, align 8
  %cmp2.not.i.i = icmp ugt i64 %2, %3
  br i1 %cmp2.not.i.i, label %lor.rhs.i.i, label %_ZNK8reslimit11is_canceledEv.exit

lor.rhs.i.i:                                      ; preds = %land.lhs.true.i.i, %entry
  %m_suspend.i.i = getelementptr inbounds i8, ptr %0, i64 4
  %4 = load i8, ptr %m_suspend.i.i, align 4
  %5 = and i8 %4, 1
  %tobool.i.i = icmp eq i8 %5, 0
  br label %_ZNK8reslimit11is_canceledEv.exit

_ZNK8reslimit11is_canceledEv.exit:                ; preds = %land.lhs.true.i.i, %lor.rhs.i.i
  %lnot.i = phi i1 [ false, %land.lhs.true.i.i ], [ %tobool.i.i, %lor.rhs.i.i ]
  ret i1 %lnot.i
}